; Function Attrs: mustprogress uwtable
define void @_ZN3gmx12PairlistSets19dispatchPruneKernelENS_19InteractionLocalityEPKNS_16nbnxn_atomdata_tENS_8ArrayRefIKNS_11BasicVectorIfEEEE(ptr noundef nonnull readonly align 8 captures(none) dereferenceable(64) %0, i32 noundef %1, ptr noundef %2, ptr %3, ptr %4) local_unnamed_addr #0 align 2 {
  %6 = alloca %"class.gmx::ArrayRef", align 8
  %7 = alloca ptr, align 8
  %8 = alloca float, align 4
  %9 = alloca i32, align 4
  %10 = icmp eq i32 %1, 0
  %11 = getelementptr inbounds nuw i8, ptr %0, i64 40
  %12 = load ptr, ptr %11, align 8
  %13 = getelementptr inbounds nuw i8, ptr %0, i64 48
  %14 = load ptr, ptr %13, align 8
  %.0.i = select i1 %10, ptr %12, ptr %14
  %15 = ptrtoint ptr %4 to i64
  %16 = ptrtoint ptr %3 to i64
  %17 = sub i64 %15, %16
  %18 = getelementptr inbounds nuw i8, ptr %3, i64 %17
  call void @llvm.lifetime.start.p0(i64 16, ptr nonnull %6)
  call void @llvm.lifetime.start.p0(i64 8, ptr nonnull %7)
  %19 = tail call i32 @__kmpc_global_thread_num(ptr nonnull @2)
  store ptr %3, ptr %6, align 8
  %20 = getelementptr inbounds nuw i8, ptr %6, i64 8
  store ptr %18, ptr %20, align 8
  store ptr %2, ptr %7, align 8, !tbaa !4
  call void @llvm.lifetime.start.p0(i64 4, ptr nonnull %8) #4
  %21 = getelementptr inbounds nuw i8, ptr %.0.i, i64 72
  %22 = load ptr, ptr %21, align 8, !tbaa !9
  %23 = getelementptr inbounds nuw i8, ptr %22, i64 12
  %24 = load float, ptr %23, align 4, !tbaa !29
  store float %24, ptr %8, align 4, !tbaa !33
  call void @llvm.lifetime.start.p0(i64 4, ptr nonnull %9) #4
  %25 = tail call noundef i32 @_Z20gmx_omp_nthreads_get17ModuleMultiThread(i32 noundef 3)
  store i32 %25, ptr %9, align 4, !tbaa !34
  tail call void @__kmpc_push_num_threads(ptr nonnull @2, i32 %19, i32 %25)
  call void (ptr, i32, ptr, ...) @__kmpc_fork_call(ptr nonnull @2, i32 5, ptr nonnull @_ZN3gmx11PairlistSet19dispatchPruneKernelEPKNS_16nbnxn_atomdata_tENS_8ArrayRefIKNS_11BasicVectorIfEEEE.omp_outlined, ptr nonnull %9, ptr nonnull align 8 dereferenceable(128) %.0.i, ptr nonnull %7, ptr nonnull %6, ptr nonnull %8)
  call void @llvm.lifetime.end.p0(i64 4, ptr nonnull %9) #4
  call void @llvm.lifetime.end.p0(i64 4, ptr nonnull %8) #4
  call void @llvm.lifetime.end.p0(i64 16, ptr nonnull %6)
  call void @llvm.lifetime.end.p0(i64 8, ptr nonnull %7)
  ret void
}